; Function Attrs: mustprogress uwtable
define hidden void @_ZN4cvc58internal5proof28LfscProofPostprocessCallbackC2ERNS0_3EnvERNS1_17LfscNodeConverterE(ptr noundef nonnull align 8 dereferenceable(104) %0, ptr noundef nonnull align 8 dereferenceable(696) %1, ptr noundef nonnull align 8 dereferenceable(768) %2) unnamed_addr #3 align 2 personality ptr @__gxx_personality_v0 {
  tail call void @_ZN4cvc58internal6EnvObjC2ERNS0_3EnvE(ptr noundef nonnull align 8 dereferenceable(16) %0, ptr noundef nonnull align 8 dereferenceable(696) %1)
  %4 = getelementptr inbounds nuw i8, ptr %0, i64 16
  tail call void @_ZN4cvc58internal24ProofNodeUpdaterCallbackC2Ev(ptr noundef nonnull align 8 dereferenceable(8) %4)
  store ptr getelementptr inbounds nuw inrange(-16, 32) (i8, ptr @_ZTVN4cvc58internal5proof28LfscProofPostprocessCallbackE, i64 16), ptr %0, align 8, !tbaa !3
  store ptr getelementptr inbounds nuw inrange(-16, 56) (i8, ptr @_ZTVN4cvc58internal5proof28LfscProofPostprocessCallbackE, i64 64), ptr %4, align 8, !tbaa !3
  %5 = invoke noundef ptr @_ZN4cvc58internal3Env19getProofNodeManagerEv(ptr noundef nonnull align 8 dereferenceable(696) %1)
          to label %6 unwind label %18

6:                                                ; preds = %3
  %7 = invoke noundef ptr @_ZNK4cvc58internal16ProofNodeManager10getCheckerEv(ptr noundef nonnull align 8 dereferenceable(32) %5)
          to label %8 unwind label %18

8:                                                ; preds = %6
  %9 = getelementptr inbounds nuw i8, ptr %0, i64 24
  store ptr %7, ptr %9, align 8, !tbaa !6
  %10 = getelementptr inbounds nuw i8, ptr %0, i64 32
  store ptr %2, ptr %10, align 8, !tbaa !23
  %11 = getelementptr inbounds nuw i8, ptr %0, i64 40
  store i8 0, ptr %11, align 8, !tbaa !24
  %12 = getelementptr inbounds nuw i8, ptr %0, i64 48
  %13 = getelementptr inbounds nuw i8, ptr %0, i64 96
  store ptr %13, ptr %12, align 8, !tbaa !25
  %14 = getelementptr inbounds nuw i8, ptr %0, i64 56
  store i64 1, ptr %14, align 8, !tbaa !26
  %15 = getelementptr inbounds nuw i8, ptr %0, i64 64
  %16 = getelementptr inbounds nuw i8, ptr %0, i64 80
  tail call void @llvm.memset.p0.i64(ptr noundef nonnull align 8 dereferenceable(16) %15, i8 0, i64 16, i1 false)
  store float 1.000000e+00, ptr %16, align 8, !tbaa !27
  %17 = getelementptr inbounds nuw i8, ptr %0, i64 88
  tail call void @llvm.memset.p0.i64(ptr noundef nonnull align 8 dereferenceable(16) %17, i8 0, i64 16, i1 false)
  ret void

18:                                               ; preds = %6, %3
  %19 = landingpad { ptr, i32 }
          cleanup
  tail call void @_ZN4cvc58internal24ProofNodeUpdaterCallbackD2Ev(ptr noundef nonnull align 8 dereferenceable(8) %4) #23
  resume { ptr, i32 } %19
}